target datalayout = "e-m:e-p270:32:32-p271:32:32-p272:64:64-i64:64-i128:128-f80:128-n8:16:32:64-S128"
target triple = "x86_64-pc-linux-gnu"

; Function Attrs: nounwind sspstrong uwtable
define internal i32 @mbc_case_fold(i32 noundef %0, ptr noundef %1, ptr noundef %2, ptr noundef %3, ptr noundef %4) #0 {
  %6 = alloca i32, align 4
  %7 = alloca i32, align 4
  %8 = alloca ptr, align 8
  %9 = alloca ptr, align 8
  %10 = alloca ptr, align 8
  %11 = alloca ptr, align 8
  %12 = alloca ptr, align 8
  %13 = alloca i32, align 4
  store i32 %0, ptr %7, align 4, !tbaa !13
  store ptr %1, ptr %8, align 8, !tbaa !14
  store ptr %2, ptr %9, align 8, !tbaa !16
  store ptr %3, ptr %10, align 8, !tbaa !16
  store ptr %4, ptr %11, align 8, !tbaa !17
  call void @llvm.lifetime.start.p0(i64 8, ptr %12) #3
  %14 = load ptr, ptr %8, align 8, !tbaa !14
  %15 = load ptr, ptr %14, align 8, !tbaa !16
  store ptr %15, ptr %12, align 8, !tbaa !16
  %16 = load ptr, ptr %12, align 8, !tbaa !16
  %17 = load i8, ptr %16, align 1, !tbaa !19
  %18 = zext i8 %17 to i32
  %19 = icmp eq i32 %18, 223
  br i1 %19, label %20, label %31

20:                                               ; preds = %5
  %21 = load i32, ptr %7, align 4, !tbaa !13
  %22 = and i32 %21, 1073741824
  %23 = icmp ne i32 %22, 0
  br i1 %23, label %24, label %31

24:                                               ; preds = %20
  %25 = load ptr, ptr %10, align 8, !tbaa !16
  %26 = getelementptr inbounds nuw i8, ptr %25, i32 1
  store ptr %26, ptr %10, align 8, !tbaa !16
  store i8 115, ptr %25, align 1, !tbaa !19
  %27 = load ptr, ptr %10, align 8, !tbaa !16
  store i8 115, ptr %27, align 1, !tbaa !19
  %28 = load ptr, ptr %8, align 8, !tbaa !14
  %29 = load ptr, ptr %28, align 8, !tbaa !16
  %30 = getelementptr inbounds nuw i8, ptr %29, i32 1
  store ptr %30, ptr %28, align 8, !tbaa !16
  store i32 2, ptr %6, align 4
  store i32 1, ptr %13, align 4
  br label %41

31:                                               ; preds = %20, %5
  %32 = load ptr, ptr %12, align 8, !tbaa !16
  %33 = load i8, ptr %32, align 1, !tbaa !19
  %34 = zext i8 %33 to i64
  %35 = getelementptr inbounds nuw [256 x i8], ptr @EncISO_8859_2_ToLowerCaseTable, i64 0, i64 %34
  %36 = load i8, ptr %35, align 1, !tbaa !19
  %37 = load ptr, ptr %10, align 8, !tbaa !16
  store i8 %36, ptr %37, align 1, !tbaa !19
  %38 = load ptr, ptr %8, align 8, !tbaa !14
  %39 = load ptr, ptr %38, align 8, !tbaa !16
  %40 = getelementptr inbounds nuw i8, ptr %39, i32 1
  store ptr %40, ptr %38, align 8, !tbaa !16
  store i32 1, ptr %6, align 4
  store i32 1, ptr %13, align 4
  br label %41

41:                                               ; preds = %31, %24
  call void @llvm.lifetime.end.p0(i64 8, ptr %12) #3
  %42 = load i32, ptr %6, align 4
  ret i32 %42
}