; Function Attrs: mustprogress nofree norecurse nosync nounwind sspstrong willreturn memory(read, argmem: readwrite, inaccessiblemem: none) uwtable
define internal range(i32 1, 3) i32 @mbc_case_fold(i32 noundef %0, ptr noundef captures(none) %1, ptr readnone captures(none) %2, ptr noundef writeonly captures(none) initializes((0, 1)) %3, ptr readnone captures(none) %4) #2 {
  %6 = load ptr, ptr %1, align 8, !tbaa !6
  %7 = load i8, ptr %6, align 1, !tbaa !11
  %8 = icmp ne i8 %7, -33
  %9 = and i32 %0, 1073741824
  %.not = icmp eq i32 %9, 0
  %or.cond = or i1 %.not, %8
  br i1 %or.cond, label %12, label %10

10:                                               ; preds = %5
  %11 = getelementptr inbounds nuw i8, ptr %3, i64 1
  store i8 115, ptr %11, align 1, !tbaa !11
  br label %16

12:                                               ; preds = %5
  %13 = zext i8 %7 to i64
  %14 = getelementptr inbounds nuw [256 x i8], ptr @EncISO_8859_2_ToLowerCaseTable, i64 0, i64 %13
  %15 = load i8, ptr %14, align 1, !tbaa !11
  br label %16

16:                                               ; preds = %12, %10
  %.sink = phi i8 [ %15, %12 ], [ 115, %10 ]
  %.0 = phi i32 [ 1, %12 ], [ 2, %10 ]
  store i8 %.sink, ptr %3, align 1, !tbaa !11
  %.pn = load ptr, ptr %1, align 8, !tbaa !6
  %storemerge = getelementptr inbounds nuw i8, ptr %.pn, i64 1
  store ptr %storemerge, ptr %1, align 8, !tbaa !6
  ret i32 %.0
}